; Function Attrs: nounwind uwtable
define hidden ptr @lxb_html_tree_destroy(ptr noundef %0) local_unnamed_addr #0 {
  %2 = icmp eq ptr %0, null
  br i1 %2, label %22, label %3

3:                                                ; preds = %1
  %4 = getelementptr inbounds i8, ptr %0, i64 32
  %5 = load ptr, ptr %4, align 8
  %6 = tail call ptr @lexbor_array_destroy(ptr noundef %5, i1 noundef zeroext true) #9
  store ptr %6, ptr %4, align 8
  %7 = getelementptr inbounds i8, ptr %0, i64 40
  %8 = load ptr, ptr %7, align 8
  %9 = tail call ptr @lexbor_array_destroy(ptr noundef %8, i1 noundef zeroext true) #9
  store ptr %9, ptr %7, align 8
  %10 = getelementptr inbounds i8, ptr %0, i64 48
  %11 = load ptr, ptr %10, align 8
  %12 = tail call ptr @lexbor_array_obj_destroy(ptr noundef %11, i1 noundef zeroext true) #9
  store ptr %12, ptr %10, align 8
  %13 = getelementptr inbounds i8, ptr %0, i64 56
  %14 = load ptr, ptr %13, align 8
  %15 = tail call ptr @lexbor_array_obj_destroy(ptr noundef %14, i1 noundef zeroext true) #9
  store ptr %15, ptr %13, align 8
  %16 = getelementptr inbounds i8, ptr %0, i64 72
  %17 = load ptr, ptr %16, align 8
  %18 = tail call ptr @lexbor_array_obj_destroy(ptr noundef %17, i1 noundef zeroext true) #9
  store ptr %18, ptr %16, align 8
  %19 = load ptr, ptr %0, align 8
  %20 = tail call ptr @lxb_html_tokenizer_unref(ptr noundef %19) #9
  store ptr %20, ptr %0, align 8
  %21 = tail call ptr @lexbor_free(ptr noundef nonnull %0) #9
  br label %22

22:                                               ; preds = %1, %3
  %.0 = phi ptr [ %21, %3 ], [ null, %1 ]
  ret ptr %.0
}